GAS LISTING C:\Users\ADMINI~1\AppData\Local\Temp\ccXPIlhh.s 			page 1


   1              		.file	"test.cpp"
   2              		.intel_syntax noprefix
   3              		.text
   4              		.def	___tcf_0;	.scl	3;	.type	32;	.endef
   5              	___tcf_0:
   6              	LFB1905:
   7              		.cfi_startproc
   8 0000 B9000000 		mov	ecx, OFFSET FLAT:__ZStL8__ioinit
   8      00
   9 0005 E9000000 		jmp	__ZNSt8ios_base4InitD1Ev
   9      00
  10              		.cfi_endproc
  11              	LFE1905:
  12              		.globl	__Z10PILA_Largo4PILA
  13              		.def	__Z10PILA_Largo4PILA;	.scl	2;	.type	32;	.endef
  14              	__Z10PILA_Largo4PILA:
  15              	LFB1470:
  16              		.cfi_startproc
  17 000a 8B442404 		mov	eax, DWORD PTR [esp+4]
  18 000e 85C0     		test	eax, eax
  19 0010 0F95C0   		setne	al
  20 0013 C3       		ret
  21              		.cfi_endproc
  22              	LFE1470:
  23              		.globl	__Z10PILA_Vacia4PILA
  24              		.def	__Z10PILA_Vacia4PILA;	.scl	2;	.type	32;	.endef
  25              	__Z10PILA_Vacia4PILA:
  26              	LFB1471:
  27              		.cfi_startproc
  28 0014 8B442404 		mov	eax, DWORD PTR [esp+4]
  29 0018 85C0     		test	eax, eax
  30 001a 0F94C0   		sete	al
  31 001d C3       		ret
  32              		.cfi_endproc
  33              	LFE1471:
  34              		.globl	__Z11PILA_BorrarP4PILA
  35              		.def	__Z11PILA_BorrarP4PILA;	.scl	2;	.type	32;	.endef
  36              	__Z11PILA_BorrarP4PILA:
  37              	LFB1472:
  38              		.cfi_startproc
  39 001e 56       		push	esi
  40              		.cfi_def_cfa_offset 8
  41              		.cfi_offset 6, -8
  42 001f 53       		push	ebx
  43              		.cfi_def_cfa_offset 12
  44              		.cfi_offset 3, -12
  45 0020 83EC14   		sub	esp, 20
  46              		.cfi_def_cfa_offset 32
  47 0023 8B742420 		mov	esi, DWORD PTR [esp+32]
  48 0027 8B4604   		mov	eax, DWORD PTR [esi+4]
  49 002a 85C0     		test	eax, eax
  50 002c 7419     		je	L6
  51              	L10:
  52 002e 8B5804   		mov	ebx, DWORD PTR [eax+4]
  53 0031 C7442404 		mov	DWORD PTR [esp+4], 8
  53      08000000 
  54 0039 890424   		mov	DWORD PTR [esp], eax
GAS LISTING C:\Users\ADMINI~1\AppData\Local\Temp\ccXPIlhh.s 			page 2


  55 003c E8000000 		call	__ZdlPvj
  55      00
  56 0041 89D8     		mov	eax, ebx
  57 0043 85DB     		test	ebx, ebx
  58 0045 75E7     		jne	L10
  59              	L6:
  60 0047 C7460400 		mov	DWORD PTR [esi+4], 0
  60      000000
  61 004e C7060000 		mov	DWORD PTR [esi], 0
  61      0000
  62 0054 83C414   		add	esp, 20
  63              		.cfi_def_cfa_offset 12
  64 0057 5B       		pop	ebx
  65              		.cfi_restore 3
  66              		.cfi_def_cfa_offset 8
  67 0058 5E       		pop	esi
  68              		.cfi_restore 6
  69              		.cfi_def_cfa_offset 4
  70 0059 C3       		ret
  71              		.cfi_endproc
  72              	LFE1472:
  73              		.globl	__Z10PILA_CrearP4PILA
  74              		.def	__Z10PILA_CrearP4PILA;	.scl	2;	.type	32;	.endef
  75              	__Z10PILA_CrearP4PILA:
  76              	LFB1473:
  77              		.cfi_startproc
  78 005a 56       		push	esi
  79              		.cfi_def_cfa_offset 8
  80              		.cfi_offset 6, -8
  81 005b 53       		push	ebx
  82              		.cfi_def_cfa_offset 12
  83              		.cfi_offset 3, -12
  84 005c 83EC14   		sub	esp, 20
  85              		.cfi_def_cfa_offset 32
  86 005f 8B742420 		mov	esi, DWORD PTR [esp+32]
  87 0063 8B4604   		mov	eax, DWORD PTR [esi+4]
  88 0066 85C0     		test	eax, eax
  89 0068 742C     		je	L16
  90              	L17:
  91 006a 8B5804   		mov	ebx, DWORD PTR [eax+4]
  92 006d C7442404 		mov	DWORD PTR [esp+4], 8
  92      08000000 
  93 0075 890424   		mov	DWORD PTR [esp], eax
  94 0078 E8000000 		call	__ZdlPvj
  94      00
  95 007d 89D8     		mov	eax, ebx
  96 007f 85DB     		test	ebx, ebx
  97 0081 75E7     		jne	L17
  98 0083 C7460400 		mov	DWORD PTR [esi+4], 0
  98      000000
  99 008a C7060000 		mov	DWORD PTR [esi], 0
  99      0000
 100 0090 83C414   		add	esp, 20
 101              		.cfi_remember_state
 102              		.cfi_def_cfa_offset 12
 103 0093 5B       		pop	ebx
 104              		.cfi_restore 3
GAS LISTING C:\Users\ADMINI~1\AppData\Local\Temp\ccXPIlhh.s 			page 3


 105              		.cfi_def_cfa_offset 8
 106 0094 5E       		pop	esi
 107              		.cfi_restore 6
 108              		.cfi_def_cfa_offset 4
 109 0095 C3       		ret
 110              	L16:
 111              		.cfi_restore_state
 112 0096 C7060000 		mov	DWORD PTR [esi], 0
 112      0000
 113 009c 83C414   		add	esp, 20
 114              		.cfi_def_cfa_offset 12
 115 009f 5B       		pop	ebx
 116              		.cfi_restore 3
 117              		.cfi_def_cfa_offset 8
 118 00a0 5E       		pop	esi
 119              		.cfi_restore 6
 120              		.cfi_def_cfa_offset 4
 121 00a1 C3       		ret
 122              		.cfi_endproc
 123              	LFE1473:
 124              		.globl	__Z12PILA_AgregarP4PILAi
 125              		.def	__Z12PILA_AgregarP4PILAi;	.scl	2;	.type	32;	.endef
 126              	__Z12PILA_AgregarP4PILAi:
 127              	LFB1474:
 128              		.cfi_startproc
 129 00a2 53       		push	ebx
 130              		.cfi_def_cfa_offset 8
 131              		.cfi_offset 3, -8
 132 00a3 83EC18   		sub	esp, 24
 133              		.cfi_def_cfa_offset 32
 134 00a6 8B5C2420 		mov	ebx, DWORD PTR [esp+32]
 135 00aa 830301   		add	DWORD PTR [ebx], 1
 136 00ad C7042408 		mov	DWORD PTR [esp], 8
 136      000000
 137 00b4 E8000000 		call	__Znwj
 137      00
 138 00b9 8B542424 		mov	edx, DWORD PTR [esp+36]
 139 00bd 8910     		mov	DWORD PTR [eax], edx
 140 00bf 8B5304   		mov	edx, DWORD PTR [ebx+4]
 141 00c2 895004   		mov	DWORD PTR [eax+4], edx
 142 00c5 894304   		mov	DWORD PTR [ebx+4], eax
 143 00c8 83C418   		add	esp, 24
 144              		.cfi_def_cfa_offset 8
 145 00cb 5B       		pop	ebx
 146              		.cfi_restore 3
 147              		.cfi_def_cfa_offset 4
 148 00cc C3       		ret
 149              		.cfi_endproc
 150              	LFE1474:
 151              		.globl	__Z12PILA_ExtraerP4PILA
 152              		.def	__Z12PILA_ExtraerP4PILA;	.scl	2;	.type	32;	.endef
 153              	__Z12PILA_ExtraerP4PILA:
 154              	LFB1475:
 155              		.cfi_startproc
 156 00cd 57       		push	edi
 157              		.cfi_def_cfa_offset 8
 158              		.cfi_offset 7, -8
GAS LISTING C:\Users\ADMINI~1\AppData\Local\Temp\ccXPIlhh.s 			page 4


 159 00ce 56       		push	esi
 160              		.cfi_def_cfa_offset 12
 161              		.cfi_offset 6, -12
 162 00cf 53       		push	ebx
 163              		.cfi_def_cfa_offset 16
 164              		.cfi_offset 3, -16
 165 00d0 83EC10   		sub	esp, 16
 166              		.cfi_def_cfa_offset 32
 167 00d3 8B5C2420 		mov	ebx, DWORD PTR [esp+32]
 168 00d7 8B5304   		mov	edx, DWORD PTR [ebx+4]
 169 00da 8B32     		mov	esi, DWORD PTR [edx]
 170 00dc 8B7A04   		mov	edi, DWORD PTR [edx+4]
 171 00df C7442404 		mov	DWORD PTR [esp+4], 8
 171      08000000 
 172 00e7 891424   		mov	DWORD PTR [esp], edx
 173 00ea E8000000 		call	__ZdlPvj
 173      00
 174 00ef 832B01   		sub	DWORD PTR [ebx], 1
 175 00f2 897B04   		mov	DWORD PTR [ebx+4], edi
 176 00f5 89F0     		mov	eax, esi
 177 00f7 83C410   		add	esp, 16
 178              		.cfi_def_cfa_offset 16
 179 00fa 5B       		pop	ebx
 180              		.cfi_restore 3
 181              		.cfi_def_cfa_offset 12
 182 00fb 5E       		pop	esi
 183              		.cfi_restore 6
 184              		.cfi_def_cfa_offset 8
 185 00fc 5F       		pop	edi
 186              		.cfi_restore 7
 187              		.cfi_def_cfa_offset 4
 188 00fd C3       		ret
 189              		.cfi_endproc
 190              	LFE1475:
 191              		.section .rdata,"dr"
 192              	LC0:
 193 0000 3B2000   		.ascii "; \0"
 194              		.text
 195              		.globl	__Z12PILA_Mostrar4PILA
 196              		.def	__Z12PILA_Mostrar4PILA;	.scl	2;	.type	32;	.endef
 197              	__Z12PILA_Mostrar4PILA:
 198              	LFB1476:
 199              		.cfi_startproc
 200 00fe 53       		push	ebx
 201              		.cfi_def_cfa_offset 8
 202              		.cfi_offset 3, -8
 203 00ff 83EC18   		sub	esp, 24
 204              		.cfi_def_cfa_offset 32
 205 0102 8B5C2424 		mov	ebx, DWORD PTR [esp+36]
 206 0106 85DB     		test	ebx, ebx
 207 0108 7431     		je	L25
 208              	L31:
 209 010a 8B03     		mov	eax, DWORD PTR [ebx]
 210 010c 890424   		mov	DWORD PTR [esp], eax
 211 010f B9000000 		mov	ecx, OFFSET FLAT:__ZSt4cout
 211      00
 212 0114 E8000000 		call	__ZNSolsEi
GAS LISTING C:\Users\ADMINI~1\AppData\Local\Temp\ccXPIlhh.s 			page 5


 212      00
 213              		.cfi_def_cfa_offset 28
 214 0119 83EC04   		sub	esp, 4
 215              		.cfi_def_cfa_offset 32
 216 011c C7442408 		mov	DWORD PTR [esp+8], 2
 216      02000000 
 217 0124 C7442404 		mov	DWORD PTR [esp+4], OFFSET FLAT:LC0
 217      00000000 
 218 012c 890424   		mov	DWORD PTR [esp], eax
 219 012f E8000000 		call	__ZSt16__ostream_insertIcSt11char_traitsIcEERSt13basic_ostreamIT_T0_ES6_PKS3_i
 219      00
 220 0134 8B5B04   		mov	ebx, DWORD PTR [ebx+4]
 221 0137 85DB     		test	ebx, ebx
 222 0139 75CF     		jne	L31
 223              	L25:
 224 013b 83C418   		add	esp, 24
 225              		.cfi_def_cfa_offset 8
 226 013e 5B       		pop	ebx
 227              		.cfi_restore 3
 228              		.cfi_def_cfa_offset 4
 229 013f C3       		ret
 230              		.cfi_endproc
 231              	LFE1476:
 232              		.def	___main;	.scl	2;	.type	32;	.endef
 233              		.section .rdata,"dr"
 234              	LC1:
 235 0003 0A00     		.ascii "\12\0"
 236 0005 000000   		.section	.text.startup,"x"
 237              		.globl	_main
 238              		.def	_main;	.scl	2;	.type	32;	.endef
 239              	_main:
 240              	LFB1477:
 241              		.cfi_startproc
 242 0000 8D4C2404 		lea	ecx, [esp+4]
 243              		.cfi_def_cfa 1, 0
 244 0004 83E4F0   		and	esp, -16
 245 0007 FF71FC   		push	DWORD PTR [ecx-4]
 246 000a 55       		push	ebp
 247              		.cfi_escape 0x10,0x5,0x2,0x75,0
 248 000b 89E5     		mov	ebp, esp
 249 000d 57       		push	edi
 250 000e 56       		push	esi
 251 000f 53       		push	ebx
 252 0010 51       		push	ecx
 253              		.cfi_escape 0xf,0x3,0x75,0x70,0x6
 254              		.cfi_escape 0x10,0x7,0x2,0x75,0x7c
 255              		.cfi_escape 0x10,0x6,0x2,0x75,0x78
 256              		.cfi_escape 0x10,0x3,0x2,0x75,0x74
 257 0011 83EC28   		sub	esp, 40
 258 0014 E8000000 		call	___main
 258      00
 259 0019 31F6     		xor	esi, esi
 260 001b 893424   		mov	DWORD PTR [esp], esi
 261 001e 31FF     		xor	edi, edi
 262 0020 897C2404 		mov	DWORD PTR [esp+4], edi
 263 0024 E8FE0000 		call	__Z12PILA_Mostrar4PILA
 263      00
GAS LISTING C:\Users\ADMINI~1\AppData\Local\Temp\ccXPIlhh.s 			page 6


 264 0029 C7042408 		mov	DWORD PTR [esp], 8
 264      000000
 265 0030 E8000000 		call	__Znwj
 265      00
 266 0035 89C3     		mov	ebx, eax
 267 0037 C7000500 		mov	DWORD PTR [eax], 5
 267      0000
 268 003d 897804   		mov	DWORD PTR [eax+4], edi
 269 0040 8D4601   		lea	eax, [esi+1]
 270 0043 890424   		mov	DWORD PTR [esp], eax
 271 0046 895C2404 		mov	DWORD PTR [esp+4], ebx
 272 004a E8FE0000 		call	__Z12PILA_Mostrar4PILA
 272      00
 273 004f 8B3B     		mov	edi, DWORD PTR [ebx]
 274 0051 8B4304   		mov	eax, DWORD PTR [ebx+4]
 275 0054 8945E4   		mov	DWORD PTR [ebp-28], eax
 276 0057 C7442404 		mov	DWORD PTR [esp+4], 8
 276      08000000 
 277 005f 891C24   		mov	DWORD PTR [esp], ebx
 278 0062 E8000000 		call	__ZdlPvj
 278      00
 279 0067 893424   		mov	DWORD PTR [esp], esi
 280 006a 8B45E4   		mov	eax, DWORD PTR [ebp-28]
 281 006d 89442404 		mov	DWORD PTR [esp+4], eax
 282 0071 E8FE0000 		call	__Z12PILA_Mostrar4PILA
 282      00
 283 0076 C7442408 		mov	DWORD PTR [esp+8], 1
 283      01000000 
 284 007e C7442404 		mov	DWORD PTR [esp+4], OFFSET FLAT:LC1
 284      03000000 
 285 0086 C7042400 		mov	DWORD PTR [esp], OFFSET FLAT:__ZSt4cout
 285      000000
 286 008d E8000000 		call	__ZSt16__ostream_insertIcSt11char_traitsIcEERSt13basic_ostreamIT_T0_ES6_PKS3_i
 286      00
 287 0092 893C24   		mov	DWORD PTR [esp], edi
 288 0095 B9000000 		mov	ecx, OFFSET FLAT:__ZSt4cout
 288      00
 289 009a E8000000 		call	__ZNSolsEi
 289      00
 290 009f 83EC04   		sub	esp, 4
 291 00a2 C7442404 		mov	DWORD PTR [esp+4], OFFSET FLAT:LC1
 291      03000000 
 292 00aa 890424   		mov	DWORD PTR [esp], eax
 293 00ad E8000000 		call	__ZStlsISt11char_traitsIcEERSt13basic_ostreamIcT_ES5_PKc
 293      00
 294 00b2 31C0     		xor	eax, eax
 295 00b4 8D65F0   		lea	esp, [ebp-16]
 296 00b7 59       		pop	ecx
 297              		.cfi_restore 1
 298              		.cfi_def_cfa 1, 0
 299 00b8 5B       		pop	ebx
 300              		.cfi_restore 3
 301 00b9 5E       		pop	esi
 302              		.cfi_restore 6
 303 00ba 5F       		pop	edi
 304              		.cfi_restore 7
 305 00bb 5D       		pop	ebp
GAS LISTING C:\Users\ADMINI~1\AppData\Local\Temp\ccXPIlhh.s 			page 7


 306              		.cfi_restore 5
 307 00bc 8D61FC   		lea	esp, [ecx-4]
 308              		.cfi_def_cfa 4, 4
 309 00bf C3       		ret
 310              		.cfi_endproc
 311              	LFE1477:
 312              		.def	__GLOBAL__sub_I__Z10PILA_Largo4PILA;	.scl	3;	.type	32;	.endef
 313              	__GLOBAL__sub_I__Z10PILA_Largo4PILA:
 314              	LFB1906:
 315              		.cfi_startproc
 316 00c0 83EC1C   		sub	esp, 28
 317              		.cfi_def_cfa_offset 32
 318 00c3 B9000000 		mov	ecx, OFFSET FLAT:__ZStL8__ioinit
 318      00
 319 00c8 E8000000 		call	__ZNSt8ios_base4InitC1Ev
 319      00
 320 00cd C7042400 		mov	DWORD PTR [esp], OFFSET FLAT:___tcf_0
 320      000000
 321 00d4 E8000000 		call	_atexit
 321      00
 322 00d9 83C41C   		add	esp, 28
 323              		.cfi_def_cfa_offset 4
 324 00dc C3       		ret
 325              		.cfi_endproc
 326              	LFE1906:
 327 00dd 909090   		.section	.ctors,"w"
 328              		.align 4
 329 0000 C0000000 		.long	__GLOBAL__sub_I__Z10PILA_Largo4PILA
 330              	.lcomm __ZStL8__ioinit,1,1
 331              		.ident	"GCC: (MinGW.org GCC-6.3.0-1) 6.3.0"
 332              		.def	__ZNSt8ios_base4InitD1Ev;	.scl	2;	.type	32;	.endef
 333              		.def	__ZdlPvj;	.scl	2;	.type	32;	.endef
 334              		.def	__Znwj;	.scl	2;	.type	32;	.endef
 335              		.def	__ZNSolsEi;	.scl	2;	.type	32;	.endef
 336              		.def	__ZSt16__ostream_insertIcSt11char_traitsIcEERSt13basic_ostreamIT_T0_ES6_PKS3_i;	.scl	2;	.type
 337              		.def	__ZStlsISt11char_traitsIcEERSt13basic_ostreamIcT_ES5_PKc;	.scl	2;	.type	32;	.endef
 338              		.def	__ZNSt8ios_base4InitC1Ev;	.scl	2;	.type	32;	.endef
 339              		.def	_atexit;	.scl	2;	.type	32;	.endef
GAS LISTING C:\Users\ADMINI~1\AppData\Local\Temp\ccXPIlhh.s 			page 8


DEFINED SYMBOLS
                            *ABS*:00000000 test.cpp
C:\Users\ADMINI~1\AppData\Local\Temp\ccXPIlhh.s:5      .text:00000000 ___tcf_0
                             .bss:00000000 __ZStL8__ioinit
C:\Users\ADMINI~1\AppData\Local\Temp\ccXPIlhh.s:14     .text:0000000a __Z10PILA_Largo4PILA
C:\Users\ADMINI~1\AppData\Local\Temp\ccXPIlhh.s:25     .text:00000014 __Z10PILA_Vacia4PILA
C:\Users\ADMINI~1\AppData\Local\Temp\ccXPIlhh.s:36     .text:0000001e __Z11PILA_BorrarP4PILA
C:\Users\ADMINI~1\AppData\Local\Temp\ccXPIlhh.s:75     .text:0000005a __Z10PILA_CrearP4PILA
C:\Users\ADMINI~1\AppData\Local\Temp\ccXPIlhh.s:126    .text:000000a2 __Z12PILA_AgregarP4PILAi
C:\Users\ADMINI~1\AppData\Local\Temp\ccXPIlhh.s:153    .text:000000cd __Z12PILA_ExtraerP4PILA
C:\Users\ADMINI~1\AppData\Local\Temp\ccXPIlhh.s:197    .text:000000fe __Z12PILA_Mostrar4PILA
C:\Users\ADMINI~1\AppData\Local\Temp\ccXPIlhh.s:239    .text.startup:00000000 _main
C:\Users\ADMINI~1\AppData\Local\Temp\ccXPIlhh.s:313    .text.startup:000000c0 __GLOBAL__sub_I__Z10PILA_Largo4PILA

UNDEFINED SYMBOLS
__ZSt4cout
___main
__ZNSt8ios_base4InitD1Ev
__ZdlPvj
__Znwj
__ZNSolsEi
__ZSt16__ostream_insertIcSt11char_traitsIcEERSt13basic_ostreamIT_T0_ES6_PKS3_i
__ZStlsISt11char_traitsIcEERSt13basic_ostreamIcT_ES5_PKc
__ZNSt8ios_base4InitC1Ev
_atexit
